target datalayout = "e-m:e-p270:32:32-p271:32:32-p272:64:64-i64:64-i128:128-f80:128-n8:16:32:64-S128"
target triple = "x86_64-pc-linux-gnu"

; Function Attrs: alwaysinline nounwind willreturn memory(none) uwtable
define internal zeroext i16 @av_bswap16(i16 noundef zeroext %0) #4 {
  %2 = alloca i16, align 2
  store i16 %0, ptr %2, align 2, !tbaa !44
  %3 = load i16, ptr %2, align 2, !tbaa !44
  %4 = zext i16 %3 to i32
  %5 = ashr i32 %4, 8
  %6 = load i16, ptr %2, align 2, !tbaa !44
  %7 = zext i16 %6 to i32
  %8 = shl i32 %7, 8
  %9 = or i32 %5, %8
  %10 = trunc i32 %9 to i16
  store i16 %10, ptr %2, align 2, !tbaa !44
  %11 = load i16, ptr %2, align 2, !tbaa !44
  ret i16 %11
}

; Function Attrs: alwaysinline nounwind uwtable
define internal void @rgb64ToUV_half_c_template(ptr noundef %0, ptr noundef %1, ptr noundef %2, ptr noundef %3, i32 noundef %4, i32 noundef %5, ptr noundef %6, i32 noundef %7) #3 {
  %9 = alloca ptr, align 8
  %10 = alloca ptr, align 8
  %11 = alloca ptr, align 8
  %12 = alloca ptr, align 8
  %13 = alloca i32, align 4
  %14 = alloca i32, align 4
  %15 = alloca ptr, align 8
  %16 = alloca i32, align 4
  %17 = alloca i32, align 4
  %18 = alloca i32, align 4
  %19 = alloca i32, align 4
  %20 = alloca i32, align 4
  %21 = alloca i32, align 4
  %22 = alloca i32, align 4
  %23 = alloca i32, align 4
  %24 = alloca i32, align 4
  %25 = alloca i32, align 4
  %26 = alloca i32, align 4
  store ptr %0, ptr %9, align 8, !tbaa !43
  store ptr %1, ptr %10, align 8, !tbaa !43
  store ptr %2, ptr %11, align 8, !tbaa !43
  store ptr %3, ptr %12, align 8, !tbaa !43
  store i32 %4, ptr %13, align 4, !tbaa !30
  store i32 %5, ptr %14, align 4, !tbaa !30
  store ptr %6, ptr %15, align 8, !tbaa !35
  store i32 %7, ptr %16, align 4, !tbaa !30
  call void @llvm.lifetime.start.p0(i64 4, ptr %17) #9
  call void @llvm.lifetime.start.p0(i64 4, ptr %18) #9
  %27 = load ptr, ptr %15, align 8, !tbaa !35
  %28 = getelementptr inbounds i32, ptr %27, i64 3
  %29 = load i32, ptr %28, align 4, !tbaa !30
  store i32 %29, ptr %18, align 4, !tbaa !30
  call void @llvm.lifetime.start.p0(i64 4, ptr %19) #9
  %30 = load ptr, ptr %15, align 8, !tbaa !35
  %31 = getelementptr inbounds i32, ptr %30, i64 4
  %32 = load i32, ptr %31, align 4, !tbaa !30
  store i32 %32, ptr %19, align 4, !tbaa !30
  call void @llvm.lifetime.start.p0(i64 4, ptr %20) #9
  %33 = load ptr, ptr %15, align 8, !tbaa !35
  %34 = getelementptr inbounds i32, ptr %33, i64 5
  %35 = load i32, ptr %34, align 4, !tbaa !30
  store i32 %35, ptr %20, align 4, !tbaa !30
  call void @llvm.lifetime.start.p0(i64 4, ptr %21) #9
  %36 = load ptr, ptr %15, align 8, !tbaa !35
  %37 = getelementptr inbounds i32, ptr %36, i64 6
  %38 = load i32, ptr %37, align 4, !tbaa !30
  store i32 %38, ptr %21, align 4, !tbaa !30
  call void @llvm.lifetime.start.p0(i64 4, ptr %22) #9
  %39 = load ptr, ptr %15, align 8, !tbaa !35
  %40 = getelementptr inbounds i32, ptr %39, i64 7
  %41 = load i32, ptr %40, align 4, !tbaa !30
  store i32 %41, ptr %22, align 4, !tbaa !30
  call void @llvm.lifetime.start.p0(i64 4, ptr %23) #9
  %42 = load ptr, ptr %15, align 8, !tbaa !35
  %43 = getelementptr inbounds i32, ptr %42, i64 8
  %44 = load i32, ptr %43, align 4, !tbaa !30
  store i32 %44, ptr %23, align 4, !tbaa !30
  store i32 0, ptr %17, align 4, !tbaa !30
  br label %45

45:                                               ; preds = %297, %8
  %46 = load i32, ptr %17, align 4, !tbaa !30
  %47 = load i32, ptr %13, align 4, !tbaa !30
  %48 = icmp slt i32 %46, %47
  br i1 %48, label %49, label %300

49:                                               ; preds = %45
  call void @llvm.lifetime.start.p0(i64 4, ptr %24) #9
  %50 = load i32, ptr %16, align 4, !tbaa !30
  %51 = icmp ne i32 %50, 0
  br i1 %51, label %52, label %62

52:                                               ; preds = %49
  %53 = load ptr, ptr %11, align 8, !tbaa !43
  %54 = load i32, ptr %17, align 4, !tbaa !30
  %55 = mul nsw i32 8, %54
  %56 = add nsw i32 %55, 0
  %57 = sext i32 %56 to i64
  %58 = getelementptr inbounds i16, ptr %53, i64 %57
  %59 = load i16, ptr %58, align 1, !tbaa !36
  %60 = call zeroext i16 @av_bswap16(i16 noundef zeroext %59) #10
  %61 = zext i16 %60 to i32
  br label %71

62:                                               ; preds = %49
  %63 = load ptr, ptr %11, align 8, !tbaa !43
  %64 = load i32, ptr %17, align 4, !tbaa !30
  %65 = mul nsw i32 8, %64
  %66 = add nsw i32 %65, 0
  %67 = sext i32 %66 to i64
  %68 = getelementptr inbounds i16, ptr %63, i64 %67
  %69 = load i16, ptr %68, align 1, !tbaa !36
  %70 = zext i16 %69 to i32
  br label %71

71:                                               ; preds = %62, %52
  %72 = phi i32 [ %61, %52 ], [ %70, %62 ]
  %73 = load i32, ptr %16, align 4, !tbaa !30
  %74 = icmp ne i32 %73, 0
  br i1 %74, label %75, label %85

75:                                               ; preds = %71
  %76 = load ptr, ptr %11, align 8, !tbaa !43
  %77 = load i32, ptr %17, align 4, !tbaa !30
  %78 = mul nsw i32 8, %77
  %79 = add nsw i32 %78, 4
  %80 = sext i32 %79 to i64
  %81 = getelementptr inbounds i16, ptr %76, i64 %80
  %82 = load i16, ptr %81, align 1, !tbaa !36
  %83 = call zeroext i16 @av_bswap16(i16 noundef zeroext %82) #10
  %84 = zext i16 %83 to i32
  br label %94

85:                                               ; preds = %71
  %86 = load ptr, ptr %11, align 8, !tbaa !43
  %87 = load i32, ptr %17, align 4, !tbaa !30
  %88 = mul nsw i32 8, %87
  %89 = add nsw i32 %88, 4
  %90 = sext i32 %89 to i64
  %91 = getelementptr inbounds i16, ptr %86, i64 %90
  %92 = load i16, ptr %91, align 1, !tbaa !36
  %93 = zext i16 %92 to i32
  br label %94

94:                                               ; preds = %85, %75
  %95 = phi i32 [ %84, %75 ], [ %93, %85 ]
  %96 = add nsw i32 %72, %95
  %97 = add nsw i32 %96, 1
  %98 = ashr i32 %97, 1
  store i32 %98, ptr %24, align 4, !tbaa !30
  call void @llvm.lifetime.start.p0(i64 4, ptr %25) #9
  %99 = load i32, ptr %16, align 4, !tbaa !30
  %100 = icmp ne i32 %99, 0
  br i1 %100, label %101, label %111

101:                                              ; preds = %94
  %102 = load ptr, ptr %11, align 8, !tbaa !43
  %103 = load i32, ptr %17, align 4, !tbaa !30
  %104 = mul nsw i32 8, %103
  %105 = add nsw i32 %104, 1
  %106 = sext i32 %105 to i64
  %107 = getelementptr inbounds i16, ptr %102, i64 %106
  %108 = load i16, ptr %107, align 1, !tbaa !36
  %109 = call zeroext i16 @av_bswap16(i16 noundef zeroext %108) #10
  %110 = zext i16 %109 to i32
  br label %120

111:                                              ; preds = %94
  %112 = load ptr, ptr %11, align 8, !tbaa !43
  %113 = load i32, ptr %17, align 4, !tbaa !30
  %114 = mul nsw i32 8, %113
  %115 = add nsw i32 %114, 1
  %116 = sext i32 %115 to i64
  %117 = getelementptr inbounds i16, ptr %112, i64 %116
  %118 = load i16, ptr %117, align 1, !tbaa !36
  %119 = zext i16 %118 to i32
  br label %120

120:                                              ; preds = %111, %101
  %121 = phi i32 [ %110, %101 ], [ %119, %111 ]
  %122 = load i32, ptr %16, align 4, !tbaa !30
  %123 = icmp ne i32 %122, 0
  br i1 %123, label %124, label %134

124:                                              ; preds = %120
  %125 = load ptr, ptr %11, align 8, !tbaa !43
  %126 = load i32, ptr %17, align 4, !tbaa !30
  %127 = mul nsw i32 8, %126
  %128 = add nsw i32 %127, 5
  %129 = sext i32 %128 to i64
  %130 = getelementptr inbounds i16, ptr %125, i64 %129
  %131 = load i16, ptr %130, align 1, !tbaa !36
  %132 = call zeroext i16 @av_bswap16(i16 noundef zeroext %131) #10
  %133 = zext i16 %132 to i32
  br label %143

134:                                              ; preds = %120
  %135 = load ptr, ptr %11, align 8, !tbaa !43
  %136 = load i32, ptr %17, align 4, !tbaa !30
  %137 = mul nsw i32 8, %136
  %138 = add nsw i32 %137, 5
  %139 = sext i32 %138 to i64
  %140 = getelementptr inbounds i16, ptr %135, i64 %139
  %141 = load i16, ptr %140, align 1, !tbaa !36
  %142 = zext i16 %141 to i32
  br label %143

143:                                              ; preds = %134, %124
  %144 = phi i32 [ %133, %124 ], [ %142, %134 ]
  %145 = add nsw i32 %121, %144
  %146 = add nsw i32 %145, 1
  %147 = ashr i32 %146, 1
  store i32 %147, ptr %25, align 4, !tbaa !30
  call void @llvm.lifetime.start.p0(i64 4, ptr %26) #9
  %148 = load i32, ptr %16, align 4, !tbaa !30
  %149 = icmp ne i32 %148, 0
  br i1 %149, label %150, label %160

150:                                              ; preds = %143
  %151 = load ptr, ptr %11, align 8, !tbaa !43
  %152 = load i32, ptr %17, align 4, !tbaa !30
  %153 = mul nsw i32 8, %152
  %154 = add nsw i32 %153, 2
  %155 = sext i32 %154 to i64
  %156 = getelementptr inbounds i16, ptr %151, i64 %155
  %157 = load i16, ptr %156, align 1, !tbaa !36
  %158 = call zeroext i16 @av_bswap16(i16 noundef zeroext %157) #10
  %159 = zext i16 %158 to i32
  br label %169

160:                                              ; preds = %143
  %161 = load ptr, ptr %11, align 8, !tbaa !43
  %162 = load i32, ptr %17, align 4, !tbaa !30
  %163 = mul nsw i32 8, %162
  %164 = add nsw i32 %163, 2
  %165 = sext i32 %164 to i64
  %166 = getelementptr inbounds i16, ptr %161, i64 %165
  %167 = load i16, ptr %166, align 1, !tbaa !36
  %168 = zext i16 %167 to i32
  br label %169

169:                                              ; preds = %160, %150
  %170 = phi i32 [ %159, %150 ], [ %168, %160 ]
  %171 = load i32, ptr %16, align 4, !tbaa !30
  %172 = icmp ne i32 %171, 0
  br i1 %172, label %173, label %183

173:                                              ; preds = %169
  %174 = load ptr, ptr %11, align 8, !tbaa !43
  %175 = load i32, ptr %17, align 4, !tbaa !30
  %176 = mul nsw i32 8, %175
  %177 = add nsw i32 %176, 6
  %178 = sext i32 %177 to i64
  %179 = getelementptr inbounds i16, ptr %174, i64 %178
  %180 = load i16, ptr %179, align 1, !tbaa !36
  %181 = call zeroext i16 @av_bswap16(i16 noundef zeroext %180) #10
  %182 = zext i16 %181 to i32
  br label %192

183:                                              ; preds = %169
  %184 = load ptr, ptr %11, align 8, !tbaa !43
  %185 = load i32, ptr %17, align 4, !tbaa !30
  %186 = mul nsw i32 8, %185
  %187 = add nsw i32 %186, 6
  %188 = sext i32 %187 to i64
  %189 = getelementptr inbounds i16, ptr %184, i64 %188
  %190 = load i16, ptr %189, align 1, !tbaa !36
  %191 = zext i16 %190 to i32
  br label %192

192:                                              ; preds = %183, %173
  %193 = phi i32 [ %182, %173 ], [ %191, %183 ]
  %194 = add nsw i32 %170, %193
  %195 = add nsw i32 %194, 1
  %196 = ashr i32 %195, 1
  store i32 %196, ptr %26, align 4, !tbaa !30
  %197 = load i32, ptr %18, align 4, !tbaa !30
  %198 = load i32, ptr %14, align 4, !tbaa !30
  %199 = icmp eq i32 %198, 57
  br i1 %199, label %209, label %200

200:                                              ; preds = %192
  %201 = load i32, ptr %14, align 4, !tbaa !30
  %202 = icmp eq i32 %201, 58
  br i1 %202, label %209, label %203

203:                                              ; preds = %200
  %204 = load i32, ptr %14, align 4, !tbaa !30
  %205 = icmp eq i32 %204, 106
  br i1 %205, label %209, label %206

206:                                              ; preds = %203
  %207 = load i32, ptr %14, align 4, !tbaa !30
  %208 = icmp eq i32 %207, 107
  br i1 %208, label %209, label %211

209:                                              ; preds = %206, %203, %200, %192
  %210 = load i32, ptr %26, align 4, !tbaa !30
  br label %213

211:                                              ; preds = %206
  %212 = load i32, ptr %24, align 4, !tbaa !30
  br label %213

213:                                              ; preds = %211, %209
  %214 = phi i32 [ %210, %209 ], [ %212, %211 ]
  %215 = mul i32 %197, %214
  %216 = load i32, ptr %19, align 4, !tbaa !30
  %217 = load i32, ptr %25, align 4, !tbaa !30
  %218 = mul i32 %216, %217
  %219 = add i32 %215, %218
  %220 = load i32, ptr %20, align 4, !tbaa !30
  %221 = load i32, ptr %14, align 4, !tbaa !30
  %222 = icmp eq i32 %221, 57
  br i1 %222, label %232, label %223

223:                                              ; preds = %213
  %224 = load i32, ptr %14, align 4, !tbaa !30
  %225 = icmp eq i32 %224, 58
  br i1 %225, label %232, label %226

226:                                              ; preds = %223
  %227 = load i32, ptr %14, align 4, !tbaa !30
  %228 = icmp eq i32 %227, 106
  br i1 %228, label %232, label %229

229:                                              ; preds = %226
  %230 = load i32, ptr %14, align 4, !tbaa !30
  %231 = icmp eq i32 %230, 107
  br i1 %231, label %232, label %234

232:                                              ; preds = %229, %226, %223, %213
  %233 = load i32, ptr %24, align 4, !tbaa !30
  br label %236

234:                                              ; preds = %229
  %235 = load i32, ptr %26, align 4, !tbaa !30
  br label %236

236:                                              ; preds = %234, %232
  %237 = phi i32 [ %233, %232 ], [ %235, %234 ]
  %238 = mul i32 %220, %237
  %239 = add i32 %219, %238
  %240 = add i32 %239, 1073758208
  %241 = lshr i32 %240, 15
  %242 = trunc i32 %241 to i16
  %243 = load ptr, ptr %9, align 8, !tbaa !43
  %244 = load i32, ptr %17, align 4, !tbaa !30
  %245 = sext i32 %244 to i64
  %246 = getelementptr inbounds i16, ptr %243, i64 %245
  store i16 %242, ptr %246, align 2, !tbaa !44
  %247 = load i32, ptr %21, align 4, !tbaa !30
  %248 = load i32, ptr %14, align 4, !tbaa !30
  %249 = icmp eq i32 %248, 57
  br i1 %249, label %259, label %250

250:                                              ; preds = %236
  %251 = load i32, ptr %14, align 4, !tbaa !30
  %252 = icmp eq i32 %251, 58
  br i1 %252, label %259, label %253

253:                                              ; preds = %250
  %254 = load i32, ptr %14, align 4, !tbaa !30
  %255 = icmp eq i32 %254, 106
  br i1 %255, label %259, label %256

256:                                              ; preds = %253
  %257 = load i32, ptr %14, align 4, !tbaa !30
  %258 = icmp eq i32 %257, 107
  br i1 %258, label %259, label %261

259:                                              ; preds = %256, %253, %250, %236
  %260 = load i32, ptr %26, align 4, !tbaa !30
  br label %263

261:                                              ; preds = %256
  %262 = load i32, ptr %24, align 4, !tbaa !30
  br label %263

263:                                              ; preds = %261, %259
  %264 = phi i32 [ %260, %259 ], [ %262, %261 ]
  %265 = mul i32 %247, %264
  %266 = load i32, ptr %22, align 4, !tbaa !30
  %267 = load i32, ptr %25, align 4, !tbaa !30
  %268 = mul i32 %266, %267
  %269 = add i32 %265, %268
  %270 = load i32, ptr %23, align 4, !tbaa !30
  %271 = load i32, ptr %14, align 4, !tbaa !30
  %272 = icmp eq i32 %271, 57
  br i1 %272, label %282, label %273

273:                                              ; preds = %263
  %274 = load i32, ptr %14, align 4, !tbaa !30
  %275 = icmp eq i32 %274, 58
  br i1 %275, label %282, label %276

276:                                              ; preds = %273
  %277 = load i32, ptr %14, align 4, !tbaa !30
  %278 = icmp eq i32 %277, 106
  br i1 %278, label %282, label %279

279:                                              ; preds = %276
  %280 = load i32, ptr %14, align 4, !tbaa !30
  %281 = icmp eq i32 %280, 107
  br i1 %281, label %282, label %284

282:                                              ; preds = %279, %276, %273, %263
  %283 = load i32, ptr %24, align 4, !tbaa !30
  br label %286

284:                                              ; preds = %279
  %285 = load i32, ptr %26, align 4, !tbaa !30
  br label %286

286:                                              ; preds = %284, %282
  %287 = phi i32 [ %283, %282 ], [ %285, %284 ]
  %288 = mul i32 %270, %287
  %289 = add i32 %269, %288
  %290 = add i32 %289, 1073758208
  %291 = lshr i32 %290, 15
  %292 = trunc i32 %291 to i16
  %293 = load ptr, ptr %10, align 8, !tbaa !43
  %294 = load i32, ptr %17, align 4, !tbaa !30
  %295 = sext i32 %294 to i64
  %296 = getelementptr inbounds i16, ptr %293, i64 %295
  store i16 %292, ptr %296, align 2, !tbaa !44
  call void @llvm.lifetime.end.p0(i64 4, ptr %26) #9
  call void @llvm.lifetime.end.p0(i64 4, ptr %25) #9
  call void @llvm.lifetime.end.p0(i64 4, ptr %24) #9
  br label %297

297:                                              ; preds = %286
  %298 = load i32, ptr %17, align 4, !tbaa !30
  %299 = add nsw i32 %298, 1
  store i32 %299, ptr %17, align 4, !tbaa !30
  br label %45, !llvm.loop !142

300:                                              ; preds = %45
  call void @llvm.lifetime.end.p0(i64 4, ptr %23) #9
  call void @llvm.lifetime.end.p0(i64 4, ptr %22) #9
  call void @llvm.lifetime.end.p0(i64 4, ptr %21) #9
  call void @llvm.lifetime.end.p0(i64 4, ptr %20) #9
  call void @llvm.lifetime.end.p0(i64 4, ptr %19) #9
  call void @llvm.lifetime.end.p0(i64 4, ptr %18) #9
  call void @llvm.lifetime.end.p0(i64 4, ptr %17) #9
  ret void
}

; Function Attrs: nounwind uwtable
define internal void @rgb64BEToUV_half_c(ptr noundef %0, ptr noundef %1, ptr noundef %2, ptr noundef %3, ptr noundef %4, i32 noundef %5, ptr noundef %6, ptr noundef %7) #2 {
  %9 = alloca ptr, align 8
  %10 = alloca ptr, align 8
  %11 = alloca ptr, align 8
  %12 = alloca ptr, align 8
  %13 = alloca ptr, align 8
  %14 = alloca i32, align 4
  %15 = alloca ptr, align 8
  %16 = alloca ptr, align 8
  %17 = alloca ptr, align 8
  %18 = alloca ptr, align 8
  %19 = alloca ptr, align 8
  %20 = alloca ptr, align 8
  store ptr %0, ptr %9, align 8, !tbaa !34
  store ptr %1, ptr %10, align 8, !tbaa !34
  store ptr %2, ptr %11, align 8, !tbaa !34
  store ptr %3, ptr %12, align 8, !tbaa !34
  store ptr %4, ptr %13, align 8, !tbaa !34
  store i32 %5, ptr %14, align 4, !tbaa !30
  store ptr %6, ptr %15, align 8, !tbaa !35
  store ptr %7, ptr %16, align 8, !tbaa !31
  call void @llvm.lifetime.start.p0(i64 8, ptr %17) #9
  %21 = load ptr, ptr %12, align 8, !tbaa !34
  store ptr %21, ptr %17, align 8, !tbaa !43
  call void @llvm.lifetime.start.p0(i64 8, ptr %18) #9
  %22 = load ptr, ptr %13, align 8, !tbaa !34
  store ptr %22, ptr %18, align 8, !tbaa !43
  call void @llvm.lifetime.start.p0(i64 8, ptr %19) #9
  %23 = load ptr, ptr %9, align 8, !tbaa !34
  store ptr %23, ptr %19, align 8, !tbaa !43
  call void @llvm.lifetime.start.p0(i64 8, ptr %20) #9
  %24 = load ptr, ptr %10, align 8, !tbaa !34
  store ptr %24, ptr %20, align 8, !tbaa !43
  %25 = load ptr, ptr %19, align 8, !tbaa !43
  %26 = load ptr, ptr %20, align 8, !tbaa !43
  %27 = load ptr, ptr %17, align 8, !tbaa !43
  %28 = load ptr, ptr %18, align 8, !tbaa !43
  %29 = load i32, ptr %14, align 4, !tbaa !30
  %30 = load ptr, ptr %15, align 8, !tbaa !35
  call void @rgb64ToUV_half_c_template(ptr noundef %25, ptr noundef %26, ptr noundef %27, ptr noundef %28, i32 noundef %29, i32 noundef 104, ptr noundef %30, i32 noundef 1)
  call void @llvm.lifetime.end.p0(i64 8, ptr %20) #9
  call void @llvm.lifetime.end.p0(i64 8, ptr %19) #9
  call void @llvm.lifetime.end.p0(i64 8, ptr %18) #9
  call void @llvm.lifetime.end.p0(i64 8, ptr %17) #9
  ret void
}